target datalayout = "e-m:e-p270:32:32-p271:32:32-p272:64:64-i64:64-i128:128-f80:128-n8:16:32:64-S128"
target triple = "x86_64-pc-linux-gnu"

%class.btVector3 = type { [4 x float] }

; Function Attrs: inlinehint mustprogress nounwind uwtable
define linkonce_odr dso_local noundef float @_ZNK9btVector33dotERKS_(ptr noundef nonnull align 4 dereferenceable(16) %0, ptr noundef nonnull align 4 dereferenceable(16) %1) #3 comdat align 2 {
  %3 = alloca ptr, align 8
  %4 = alloca ptr, align 8
  store ptr %0, ptr %3, align 8, !tbaa !14
  store ptr %1, ptr %4, align 8, !tbaa !14
  %5 = load ptr, ptr %3, align 8
  %6 = getelementptr inbounds nuw %class.btVector3, ptr %5, i32 0, i32 0
  %7 = getelementptr inbounds [4 x float], ptr %6, i64 0, i64 0
  %8 = load float, ptr %7, align 4, !tbaa !12
  %9 = load ptr, ptr %4, align 8, !tbaa !14
  %10 = getelementptr inbounds nuw %class.btVector3, ptr %9, i32 0, i32 0
  %11 = getelementptr inbounds [4 x float], ptr %10, i64 0, i64 0
  %12 = load float, ptr %11, align 4, !tbaa !12
  %13 = getelementptr inbounds nuw %class.btVector3, ptr %5, i32 0, i32 0
  %14 = getelementptr inbounds [4 x float], ptr %13, i64 0, i64 1
  %15 = load float, ptr %14, align 4, !tbaa !12
  %16 = load ptr, ptr %4, align 8, !tbaa !14
  %17 = getelementptr inbounds nuw %class.btVector3, ptr %16, i32 0, i32 0
  %18 = getelementptr inbounds [4 x float], ptr %17, i64 0, i64 1
  %19 = load float, ptr %18, align 4, !tbaa !12
  %20 = fmul float %15, %19
  %21 = call float @llvm.fmuladd.f32(float %8, float %12, float %20)
  %22 = getelementptr inbounds nuw %class.btVector3, ptr %5, i32 0, i32 0
  %23 = getelementptr inbounds [4 x float], ptr %22, i64 0, i64 2
  %24 = load float, ptr %23, align 4, !tbaa !12
  %25 = load ptr, ptr %4, align 8, !tbaa !14
  %26 = getelementptr inbounds nuw %class.btVector3, ptr %25, i32 0, i32 0
  %27 = getelementptr inbounds [4 x float], ptr %26, i64 0, i64 2
  %28 = load float, ptr %27, align 4, !tbaa !12
  %29 = call float @llvm.fmuladd.f32(float %24, float %28, float %21)
  ret float %29
}

; Function Attrs: inlinehint mustprogress nounwind uwtable
define linkonce_odr dso_local void @_ZN9btVector3C2ERKfS1_S1_(ptr noundef nonnull align 4 dereferenceable(16) %0, ptr noundef nonnull align 4 dereferenceable(4) %1, ptr noundef nonnull align 4 dereferenceable(4) %2, ptr noundef nonnull align 4 dereferenceable(4) %3) unnamed_addr #3 comdat align 2 {
  %5 = alloca ptr, align 8
  %6 = alloca ptr, align 8
  %7 = alloca ptr, align 8
  %8 = alloca ptr, align 8
  store ptr %0, ptr %5, align 8, !tbaa !14
  store ptr %1, ptr %6, align 8, !tbaa !16
  store ptr %2, ptr %7, align 8, !tbaa !16
  store ptr %3, ptr %8, align 8, !tbaa !16
  %9 = load ptr, ptr %5, align 8
  %10 = load ptr, ptr %6, align 8, !tbaa !16
  %11 = load float, ptr %10, align 4, !tbaa !12
  %12 = getelementptr inbounds nuw %class.btVector3, ptr %9, i32 0, i32 0
  %13 = getelementptr inbounds [4 x float], ptr %12, i64 0, i64 0
  store float %11, ptr %13, align 4, !tbaa !12
  %14 = load ptr, ptr %7, align 8, !tbaa !16
  %15 = load float, ptr %14, align 4, !tbaa !12
  %16 = getelementptr inbounds nuw %class.btVector3, ptr %9, i32 0, i32 0
  %17 = getelementptr inbounds [4 x float], ptr %16, i64 0, i64 1
  store float %15, ptr %17, align 4, !tbaa !12
  %18 = load ptr, ptr %8, align 8, !tbaa !16
  %19 = load float, ptr %18, align 4, !tbaa !12
  %20 = getelementptr inbounds nuw %class.btVector3, ptr %9, i32 0, i32 0
  %21 = getelementptr inbounds [4 x float], ptr %20, i64 0, i64 2
  store float %19, ptr %21, align 4, !tbaa !12
  %22 = getelementptr inbounds nuw %class.btVector3, ptr %9, i32 0, i32 0
  %23 = getelementptr inbounds [4 x float], ptr %22, i64 0, i64 3
  store float 0.000000e+00, ptr %23, align 4, !tbaa !12
  ret void
}

; Function Attrs: inlinehint mustprogress nounwind uwtable
define linkonce_odr dso_local noundef ptr @_ZN9btVector3cvPfEv(ptr noundef nonnull align 4 dereferenceable(16) %0) #3 comdat align 2 {
  %2 = alloca ptr, align 8
  store ptr %0, ptr %2, align 8, !tbaa !14
  %3 = load ptr, ptr %2, align 8
  %4 = getelementptr inbounds nuw %class.btVector3, ptr %3, i32 0, i32 0
  %5 = getelementptr inbounds [4 x float], ptr %4, i64 0, i64 0
  ret ptr %5
}

; Function Attrs: inlinehint mustprogress uwtable
define linkonce_odr dso_local noundef float @_Z5btDotRK9btVector3S1_(ptr noundef nonnull align 4 dereferenceable(16) %0, ptr noundef nonnull align 4 dereferenceable(16) %1) #8 comdat {
  %3 = alloca ptr, align 8
  %4 = alloca ptr, align 8
  store ptr %0, ptr %3, align 8, !tbaa !14
  store ptr %1, ptr %4, align 8, !tbaa !14
  %5 = load ptr, ptr %3, align 8, !tbaa !14
  %6 = load ptr, ptr %4, align 8, !tbaa !14
  %7 = call noundef float @_ZNK9btVector33dotERKS_(ptr noundef nonnull align 4 dereferenceable(16) %5, ptr noundef nonnull align 4 dereferenceable(16) %6)
  ret float %7
}

; Function Attrs: inlinehint mustprogress uwtable
define linkonce_odr dso_local { <2 x float>, <2 x float> } @_ZmiRK9btVector3S1_(ptr noundef nonnull align 4 dereferenceable(16) %0, ptr noundef nonnull align 4 dereferenceable(16) %1) #8 comdat {
  %3 = alloca %class.btVector3, align 4
  %4 = alloca ptr, align 8
  %5 = alloca ptr, align 8
  %6 = alloca float, align 4
  %7 = alloca float, align 4
  %8 = alloca float, align 4
  store ptr %0, ptr %4, align 8, !tbaa !14
  store ptr %1, ptr %5, align 8, !tbaa !14
  call void @llvm.lifetime.start.p0(i64 4, ptr %6) #6
  %9 = load ptr, ptr %4, align 8, !tbaa !14
  %10 = getelementptr inbounds nuw %class.btVector3, ptr %9, i32 0, i32 0
  %11 = getelementptr inbounds [4 x float], ptr %10, i64 0, i64 0
  %12 = load float, ptr %11, align 4, !tbaa !12
  %13 = load ptr, ptr %5, align 8, !tbaa !14
  %14 = getelementptr inbounds nuw %class.btVector3, ptr %13, i32 0, i32 0
  %15 = getelementptr inbounds [4 x float], ptr %14, i64 0, i64 0
  %16 = load float, ptr %15, align 4, !tbaa !12
  %17 = fsub float %12, %16
  store float %17, ptr %6, align 4, !tbaa !12
  call void @llvm.lifetime.start.p0(i64 4, ptr %7) #6
  %18 = load ptr, ptr %4, align 8, !tbaa !14
  %19 = getelementptr inbounds nuw %class.btVector3, ptr %18, i32 0, i32 0
  %20 = getelementptr inbounds [4 x float], ptr %19, i64 0, i64 1
  %21 = load float, ptr %20, align 4, !tbaa !12
  %22 = load ptr, ptr %5, align 8, !tbaa !14
  %23 = getelementptr inbounds nuw %class.btVector3, ptr %22, i32 0, i32 0
  %24 = getelementptr inbounds [4 x float], ptr %23, i64 0, i64 1
  %25 = load float, ptr %24, align 4, !tbaa !12
  %26 = fsub float %21, %25
  store float %26, ptr %7, align 4, !tbaa !12
  call void @llvm.lifetime.start.p0(i64 4, ptr %8) #6
  %27 = load ptr, ptr %4, align 8, !tbaa !14
  %28 = getelementptr inbounds nuw %class.btVector3, ptr %27, i32 0, i32 0
  %29 = getelementptr inbounds [4 x float], ptr %28, i64 0, i64 2
  %30 = load float, ptr %29, align 4, !tbaa !12
  %31 = load ptr, ptr %5, align 8, !tbaa !14
  %32 = getelementptr inbounds nuw %class.btVector3, ptr %31, i32 0, i32 0
  %33 = getelementptr inbounds [4 x float], ptr %32, i64 0, i64 2
  %34 = load float, ptr %33, align 4, !tbaa !12
  %35 = fsub float %30, %34
  store float %35, ptr %8, align 4, !tbaa !12
  call void @_ZN9btVector3C2ERKfS1_S1_(ptr noundef nonnull align 4 dereferenceable(16) %3, ptr noundef nonnull align 4 dereferenceable(4) %6, ptr noundef nonnull align 4 dereferenceable(4) %7, ptr noundef nonnull align 4 dereferenceable(4) %8)
  call void @llvm.lifetime.end.p0(i64 4, ptr %8) #6
  call void @llvm.lifetime.end.p0(i64 4, ptr %7) #6
  call void @llvm.lifetime.end.p0(i64 4, ptr %6) #6
  %36 = getelementptr inbounds nuw %class.btVector3, ptr %3, i32 0, i32 0
  %37 = load { <2 x float>, <2 x float> }, ptr %36, align 4
  ret { <2 x float>, <2 x float> } %37
}

; Function Attrs: mustprogress uwtable
define dso_local void @_ZN17btSoftBodyHelpers21getBarycentricWeightsERK9btVector3S2_S2_S2_R9btVector4(ptr noundef nonnull align 4 dereferenceable(16) %0, ptr noundef nonnull align 4 dereferenceable(16) %1, ptr noundef nonnull align 4 dereferenceable(16) %2, ptr noundef nonnull align 4 dereferenceable(16) %3, ptr noundef nonnull align 4 dereferenceable(16) %4) #7 align 2 {
  %6 = alloca ptr, align 8
  %7 = alloca ptr, align 8
  %8 = alloca ptr, align 8
  %9 = alloca ptr, align 8
  %10 = alloca ptr, align 8
  %11 = alloca %class.btVector3, align 4
  %12 = alloca %class.btVector3, align 4
  %13 = alloca %class.btVector3, align 4
  %14 = alloca float, align 4
  %15 = alloca float, align 4
  %16 = alloca float, align 4
  %17 = alloca float, align 4
  %18 = alloca float, align 4
  %19 = alloca float, align 4
  store ptr %0, ptr %6, align 8, !tbaa !14
  store ptr %1, ptr %7, align 8, !tbaa !14
  store ptr %2, ptr %8, align 8, !tbaa !14
  store ptr %3, ptr %9, align 8, !tbaa !14
  store ptr %4, ptr %10, align 8, !tbaa !427
  call void @llvm.lifetime.start.p0(i64 16, ptr %11) #6
  %20 = load ptr, ptr %7, align 8, !tbaa !14
  %21 = load ptr, ptr %6, align 8, !tbaa !14
  %22 = call { <2 x float>, <2 x float> } @_ZmiRK9btVector3S1_(ptr noundef nonnull align 4 dereferenceable(16) %20, ptr noundef nonnull align 4 dereferenceable(16) %21)
  %23 = getelementptr inbounds nuw %class.btVector3, ptr %11, i32 0, i32 0
  %24 = getelementptr inbounds nuw { <2 x float>, <2 x float> }, ptr %23, i32 0, i32 0
  %25 = extractvalue { <2 x float>, <2 x float> } %22, 0
  store <2 x float> %25, ptr %24, align 4
  %26 = getelementptr inbounds nuw { <2 x float>, <2 x float> }, ptr %23, i32 0, i32 1
  %27 = extractvalue { <2 x float>, <2 x float> } %22, 1
  store <2 x float> %27, ptr %26, align 4
  call void @llvm.lifetime.start.p0(i64 16, ptr %12) #6
  %28 = load ptr, ptr %8, align 8, !tbaa !14
  %29 = load ptr, ptr %6, align 8, !tbaa !14
  %30 = call { <2 x float>, <2 x float> } @_ZmiRK9btVector3S1_(ptr noundef nonnull align 4 dereferenceable(16) %28, ptr noundef nonnull align 4 dereferenceable(16) %29)
  %31 = getelementptr inbounds nuw %class.btVector3, ptr %12, i32 0, i32 0
  %32 = getelementptr inbounds nuw { <2 x float>, <2 x float> }, ptr %31, i32 0, i32 0
  %33 = extractvalue { <2 x float>, <2 x float> } %30, 0
  store <2 x float> %33, ptr %32, align 4
  %34 = getelementptr inbounds nuw { <2 x float>, <2 x float> }, ptr %31, i32 0, i32 1
  %35 = extractvalue { <2 x float>, <2 x float> } %30, 1
  store <2 x float> %35, ptr %34, align 4
  call void @llvm.lifetime.start.p0(i64 16, ptr %13) #6
  %36 = load ptr, ptr %9, align 8, !tbaa !14
  %37 = load ptr, ptr %6, align 8, !tbaa !14
  %38 = call { <2 x float>, <2 x float> } @_ZmiRK9btVector3S1_(ptr noundef nonnull align 4 dereferenceable(16) %36, ptr noundef nonnull align 4 dereferenceable(16) %37)
  %39 = getelementptr inbounds nuw %class.btVector3, ptr %13, i32 0, i32 0
  %40 = getelementptr inbounds nuw { <2 x float>, <2 x float> }, ptr %39, i32 0, i32 0
  %41 = extractvalue { <2 x float>, <2 x float> } %38, 0
  store <2 x float> %41, ptr %40, align 4
  %42 = getelementptr inbounds nuw { <2 x float>, <2 x float> }, ptr %39, i32 0, i32 1
  %43 = extractvalue { <2 x float>, <2 x float> } %38, 1
  store <2 x float> %43, ptr %42, align 4
  call void @llvm.lifetime.start.p0(i64 4, ptr %14) #6
  %44 = call noundef float @_Z5btDotRK9btVector3S1_(ptr noundef nonnull align 4 dereferenceable(16) %11, ptr noundef nonnull align 4 dereferenceable(16) %11)
  store float %44, ptr %14, align 4, !tbaa !12
  call void @llvm.lifetime.start.p0(i64 4, ptr %15) #6
  %45 = call noundef float @_Z5btDotRK9btVector3S1_(ptr noundef nonnull align 4 dereferenceable(16) %11, ptr noundef nonnull align 4 dereferenceable(16) %12)
  store float %45, ptr %15, align 4, !tbaa !12
  call void @llvm.lifetime.start.p0(i64 4, ptr %16) #6
  %46 = call noundef float @_Z5btDotRK9btVector3S1_(ptr noundef nonnull align 4 dereferenceable(16) %12, ptr noundef nonnull align 4 dereferenceable(16) %12)
  store float %46, ptr %16, align 4, !tbaa !12
  call void @llvm.lifetime.start.p0(i64 4, ptr %17) #6
  %47 = call noundef float @_Z5btDotRK9btVector3S1_(ptr noundef nonnull align 4 dereferenceable(16) %13, ptr noundef nonnull align 4 dereferenceable(16) %11)
  store float %47, ptr %17, align 4, !tbaa !12
  call void @llvm.lifetime.start.p0(i64 4, ptr %18) #6
  %48 = call noundef float @_Z5btDotRK9btVector3S1_(ptr noundef nonnull align 4 dereferenceable(16) %13, ptr noundef nonnull align 4 dereferenceable(16) %12)
  store float %48, ptr %18, align 4, !tbaa !12
  call void @llvm.lifetime.start.p0(i64 4, ptr %19) #6
  %49 = load float, ptr %14, align 4, !tbaa !12
  %50 = load float, ptr %16, align 4, !tbaa !12
  %51 = load float, ptr %15, align 4, !tbaa !12
  %52 = load float, ptr %15, align 4, !tbaa !12
  %53 = fmul float %51, %52
  %54 = fneg float %53
  %55 = call float @llvm.fmuladd.f32(float %49, float %50, float %54)
  %56 = fpext float %55 to double
  %57 = fdiv double 1.000000e+00, %56
  %58 = fptrunc double %57 to float
  store float %58, ptr %19, align 4, !tbaa !12
  %59 = load float, ptr %16, align 4, !tbaa !12
  %60 = load float, ptr %17, align 4, !tbaa !12
  %61 = load float, ptr %15, align 4, !tbaa !12
  %62 = load float, ptr %18, align 4, !tbaa !12
  %63 = fmul float %61, %62
  %64 = fneg float %63
  %65 = call float @llvm.fmuladd.f32(float %59, float %60, float %64)
  %66 = load float, ptr %19, align 4, !tbaa !12
  %67 = fmul float %65, %66
  %68 = load ptr, ptr %10, align 8, !tbaa !427
  %69 = call noundef ptr @_ZN9btVector3cvPfEv(ptr noundef nonnull align 4 dereferenceable(16) %68)
  %70 = getelementptr inbounds float, ptr %69, i64 1
  store float %67, ptr %70, align 4, !tbaa !12
  %71 = load float, ptr %14, align 4, !tbaa !12
  %72 = load float, ptr %18, align 4, !tbaa !12
  %73 = load float, ptr %15, align 4, !tbaa !12
  %74 = load float, ptr %17, align 4, !tbaa !12
  %75 = fmul float %73, %74
  %76 = fneg float %75
  %77 = call float @llvm.fmuladd.f32(float %71, float %72, float %76)
  %78 = load float, ptr %19, align 4, !tbaa !12
  %79 = fmul float %77, %78
  %80 = load ptr, ptr %10, align 8, !tbaa !427
  %81 = call noundef ptr @_ZN9btVector3cvPfEv(ptr noundef nonnull align 4 dereferenceable(16) %80)
  %82 = getelementptr inbounds float, ptr %81, i64 2
  store float %79, ptr %82, align 4, !tbaa !12
  %83 = load ptr, ptr %10, align 8, !tbaa !427
  %84 = call noundef ptr @_ZN9btVector3cvPfEv(ptr noundef nonnull align 4 dereferenceable(16) %83)
  %85 = getelementptr inbounds float, ptr %84, i64 1
  %86 = load float, ptr %85, align 4, !tbaa !12
  %87 = fpext float %86 to double
  %88 = fsub double 1.000000e+00, %87
  %89 = load ptr, ptr %10, align 8, !tbaa !427
  %90 = call noundef ptr @_ZN9btVector3cvPfEv(ptr noundef nonnull align 4 dereferenceable(16) %89)
  %91 = getelementptr inbounds float, ptr %90, i64 2
  %92 = load float, ptr %91, align 4, !tbaa !12
  %93 = fpext float %92 to double
  %94 = fsub double %88, %93
  %95 = fptrunc double %94 to float
  %96 = load ptr, ptr %10, align 8, !tbaa !427
  %97 = call noundef ptr @_ZN9btVector3cvPfEv(ptr noundef nonnull align 4 dereferenceable(16) %96)
  %98 = getelementptr inbounds float, ptr %97, i64 0
  store float %95, ptr %98, align 4, !tbaa !12
  %99 = load ptr, ptr %10, align 8, !tbaa !427
  %100 = call noundef ptr @_ZN9btVector3cvPfEv(ptr noundef nonnull align 4 dereferenceable(16) %99)
  %101 = getelementptr inbounds float, ptr %100, i64 3
  store float 0.000000e+00, ptr %101, align 4, !tbaa !12
  call void @llvm.lifetime.end.p0(i64 4, ptr %19) #6
  call void @llvm.lifetime.end.p0(i64 4, ptr %18) #6
  call void @llvm.lifetime.end.p0(i64 4, ptr %17) #6
  call void @llvm.lifetime.end.p0(i64 4, ptr %16) #6
  call void @llvm.lifetime.end.p0(i64 4, ptr %15) #6
  call void @llvm.lifetime.end.p0(i64 4, ptr %14) #6
  call void @llvm.lifetime.end.p0(i64 16, ptr %13) #6
  call void @llvm.lifetime.end.p0(i64 16, ptr %12) #6
  call void @llvm.lifetime.end.p0(i64 16, ptr %11) #6
  ret void
}