; Function Attrs: mustprogress nofree norecurse nosync nounwind willreturn memory(argmem: readwrite) uwtable
define dso_local void @_ZN17btSoftBodyHelpers21getBarycentricWeightsERK9btVector3S2_S2_S2_R9btVector4(ptr noundef nonnull readonly align 4 captures(none) dereferenceable(16) %0, ptr noundef nonnull readonly align 4 captures(none) dereferenceable(16) %1, ptr noundef nonnull readonly align 4 captures(none) dereferenceable(16) %2, ptr noundef nonnull readonly align 4 captures(none) dereferenceable(16) %3, ptr noundef nonnull writeonly align 4 captures(none) dereferenceable(16) initializes((0, 16)) %4) local_unnamed_addr #17 align 2 {
  %6 = load float, ptr %1, align 4, !tbaa !4
  %7 = load float, ptr %0, align 4, !tbaa !4
  %8 = fsub float %6, %7
  %9 = getelementptr inbounds nuw i8, ptr %1, i64 4
  %10 = load float, ptr %9, align 4, !tbaa !4
  %11 = getelementptr inbounds nuw i8, ptr %0, i64 4
  %12 = load float, ptr %11, align 4, !tbaa !4
  %13 = fsub float %10, %12
  %14 = getelementptr inbounds nuw i8, ptr %1, i64 8
  %15 = load float, ptr %14, align 4, !tbaa !4
  %16 = getelementptr inbounds nuw i8, ptr %0, i64 8
  %17 = load float, ptr %16, align 4, !tbaa !4
  %18 = fsub float %15, %17
  %19 = load float, ptr %2, align 4, !tbaa !4
  %20 = fsub float %19, %7
  %21 = getelementptr inbounds nuw i8, ptr %2, i64 4
  %22 = load float, ptr %21, align 4, !tbaa !4
  %23 = fsub float %22, %12
  %24 = getelementptr inbounds nuw i8, ptr %2, i64 8
  %25 = load float, ptr %24, align 4, !tbaa !4
  %26 = fsub float %25, %17
  %27 = load float, ptr %3, align 4, !tbaa !4
  %28 = fsub float %27, %7
  %29 = getelementptr inbounds nuw i8, ptr %3, i64 4
  %30 = load float, ptr %29, align 4, !tbaa !4
  %31 = fsub float %30, %12
  %32 = getelementptr inbounds nuw i8, ptr %3, i64 8
  %33 = load float, ptr %32, align 4, !tbaa !4
  %34 = fsub float %33, %17
  %35 = fmul float %13, %13
  %36 = tail call float @llvm.fmuladd.f32(float %8, float %8, float %35)
  %37 = tail call noundef float @llvm.fmuladd.f32(float %18, float %18, float %36)
  %38 = fmul float %13, %23
  %39 = tail call float @llvm.fmuladd.f32(float %8, float %20, float %38)
  %40 = tail call noundef float @llvm.fmuladd.f32(float %18, float %26, float %39)
  %41 = fmul float %23, %23
  %42 = tail call float @llvm.fmuladd.f32(float %20, float %20, float %41)
  %43 = tail call noundef float @llvm.fmuladd.f32(float %26, float %26, float %42)
  %44 = fmul float %13, %31
  %45 = tail call float @llvm.fmuladd.f32(float %28, float %8, float %44)
  %46 = tail call noundef float @llvm.fmuladd.f32(float %34, float %18, float %45)
  %47 = fmul float %23, %31
  %48 = tail call float @llvm.fmuladd.f32(float %28, float %20, float %47)
  %49 = tail call noundef float @llvm.fmuladd.f32(float %34, float %26, float %48)
  %50 = fneg float %40
  %51 = fmul float %40, %50
  %52 = tail call float @llvm.fmuladd.f32(float %37, float %43, float %51)
  %53 = fdiv float 1.000000e+00, %52
  %54 = fneg float %49
  %55 = fmul float %40, %54
  %56 = tail call float @llvm.fmuladd.f32(float %43, float %46, float %55)
  %57 = fmul float %53, %56
  %58 = getelementptr inbounds nuw i8, ptr %4, i64 4
  store float %57, ptr %58, align 4, !tbaa !4
  %59 = fneg float %46
  %60 = fmul float %40, %59
  %61 = tail call float @llvm.fmuladd.f32(float %37, float %49, float %60)
  %62 = fmul float %53, %61
  %63 = getelementptr inbounds nuw i8, ptr %4, i64 8
  store float %62, ptr %63, align 4, !tbaa !4
  %64 = fpext float %57 to double
  %65 = fsub double 1.000000e+00, %64
  %66 = fpext float %62 to double
  %67 = fsub double %65, %66
  %68 = fptrunc double %67 to float
  store float %68, ptr %4, align 4, !tbaa !4
  %69 = getelementptr inbounds nuw i8, ptr %4, i64 12
  store float 0.000000e+00, ptr %69, align 4, !tbaa !4
  ret void
}